Certificate:
    Data:
        Version: 3 (0x2)
        Serial Number: 1 (0x1)
    Signature Algorithm: sha1WithRSAEncryption
        Issuer: CN=61.97.210.136:5061, ST=BU, C=RO/emailAddress=gzonelee@gmail.com, O=gpmobile
        Validity
            Not Before: Oct 17 07:36:33 2016 GMT
            Not After : Oct 17 07:36:33 2017 GMT
        Subject: C=RO, ST=BU, O=gpmobile, OU=development, CN=61.97.210.136:5061/emailAddress=gzonelee@gmail.com
        Subject Public Key Info:
            Public Key Algorithm: rsaEncryption
                Public-Key: (2048 bit)
                Modulus:
                    00:b5:83:3d:a4:1f:5a:4f:41:67:70:f4:18:89:64:
                    28:d6:c7:aa:b6:01:30:1e:f8:66:07:09:2a:84:96:
                    e6:5b:13:0a:e8:47:7c:5d:b2:0b:9e:76:62:74:04:
                    01:f0:af:75:c9:f8:de:2f:e3:d3:41:bd:27:03:64:
                    56:c7:ed:79:b8:7f:9c:0e:9e:2f:93:41:e4:b5:40:
                    f7:5f:ba:c2:d8:07:b1:4c:5d:c5:93:0c:1a:2b:4c:
                    61:58:fe:61:c3:12:fd:2c:06:aa:00:75:5c:73:9e:
                    a2:e4:bd:3f:a7:2a:30:30:91:d9:14:0a:0f:cd:36:
                    be:87:4c:36:83:3e:e6:f4:e4:52:b4:1d:37:09:b1:
                    f7:74:b3:7c:50:b6:96:7b:fd:40:e2:ee:0c:d2:c4:
                    2b:63:41:ce:f5:49:b0:65:66:78:90:69:a6:cf:2b:
                    1f:39:d7:88:ae:de:20:d2:19:ef:d8:50:25:90:f3:
                    11:a3:e2:5b:8b:35:73:74:51:cf:07:9b:ad:6a:01:
                    1f:ae:33:cb:2f:04:e9:51:9f:9a:08:2e:12:75:3a:
                    f5:87:ae:cf:4f:d7:d8:de:d8:f5:00:fa:a9:fd:48:
                    f4:08:5f:68:16:95:62:7d:f1:8f:f3:09:fc:0f:2f:
                    8a:0a:a7:e2:0c:14:07:7c:8d:18:ec:e5:f1:06:6c:
                    b3:3b
                Exponent: 65537 (0x10001)
        X509v3 extensions:
            X509v3 Basic Constraints: 
                CA:FALSE
    Signature Algorithm: sha1WithRSAEncryption
         12:86:11:73:c3:38:d0:8b:ec:5d:91:5d:f0:f4:6b:30:68:83:
         11:1d:51:e9:8b:c6:5b:10:bf:5e:4d:63:a5:f3:47:6b:ee:5d:
         dd:b5:ef:b2:80:5c:2b:4d:2c:da:a6:24:d6:1e:8f:80:e2:0a:
         06:4a:47:88:5a:ee:92:e0:55:81:82:58:ad:29:60:4c:23:1b:
         53:04:9d:ae:20:ba:b1:15:1e:f6:dc:d1:33:94:e4:0b:2b:aa:
         0e:cc:47:fc:bf:6d:8f:e2:33:16:52:01:bc:98:71:a5:b5:f7:
         f5:d9:66:70:ff:80:cc:56:78:44:cf:9a:ea:6b:97:62:a6:dc:
         4f:a7:e6:9f:ac:db:bc:de:8f:d3:fa:c2:58:cb:85:4c:90:12:
         e6:b7:22:73:60:2d:96:22:a2:c4:f5:a1:1e:1c:11:e5:10:e6:
         d9:3c:ba:6b:5f:c6:aa:90:de:c4:fb:6a:75:51:68:62:0a:70:
         d6:26:77:eb:b8:8e:1f:ed:62:de:11:71:9f:bc:38:76:f9:1c:
         ca:44:67:f7:d4:aa:35:ff:8d:4c:76:ba:2f:2e:b0:f7:c7:a6:
         fd:62:d6:9b:4e:93:42:86:85:b5:20:5b:b8:09:37:9b:92:2d:
         b5:8a:3d:a1:04:97:75:7c:1a:52:ba:5d:38:dc:7a:71:61:b3:
         0f:1f:c6:c5
-----BEGIN CERTIFICATE-----
MIIDeTCCAmGgAwIBAgIBATANBgkqhkiG9w0BAQUFADBtMRswGQYDVQQDDBI2MS45
Ny4yMTAuMTM2OjUwNjExCzAJBgNVBAgMAkJVMQswCQYDVQQGEwJSTzEhMB8GCSqG
SIb3DQEJARYSZ3pvbmVsZWVAZ21haWwuY29tMREwDwYDVQQKDAhncG1vYmlsZTAe
Fw0xNjEwMTcwNzM2MzNaFw0xNzEwMTcwNzM2MzNaMIGDMQswCQYDVQQGEwJSTzEL
MAkGA1UECAwCQlUxETAPBgNVBAoMCGdwbW9iaWxlMRQwEgYDVQQLDAtkZXZlbG9w
bWVudDEbMBkGA1UEAwwSNjEuOTcuMjEwLjEzNjo1MDYxMSEwHwYJKoZIhvcNAQkB
FhJnem9uZWxlZUBnbWFpbC5jb20wggEiMA0GCSqGSIb3DQEBAQUAA4IBDwAwggEK
AoIBAQC1gz2kH1pPQWdw9BiJZCjWx6q2ATAe+GYHCSqEluZbEwroR3xdsguedmJ0
BAHwr3XJ+N4v49NBvScDZFbH7Xm4f5wOni+TQeS1QPdfusLYB7FMXcWTDBorTGFY
/mHDEv0sBqoAdVxznqLkvT+nKjAwkdkUCg/NNr6HTDaDPub05FK0HTcJsfd0s3xQ
tpZ7/UDi7gzSxCtjQc71SbBlZniQaabPKx8514iu3iDSGe/YUCWQ8xGj4luLNXN0
Uc8Hm61qAR+uM8svBOlRn5oILhJ1OvWHrs9P19je2PUA+qn9SPQIX2gWlWJ98Y/z
CfwPL4oKp+IMFAd8jRjs5fEGbLM7AgMBAAGjDTALMAkGA1UdEwQCMAAwDQYJKoZI
hvcNAQEFBQADggEBABKGEXPDONCL7F2RXfD0azBogxEdUemLxlsQv15NY6XzR2vu
Xd2177KAXCtNLNqmJNYej4DiCgZKR4ha7pLgVYGCWK0pYEwjG1MEna4gurEVHvbc
0TOU5Asrqg7MR/y/bY/iMxZSAbyYcaW19/XZZnD/gMxWeETPmuprl2Km3E+n5p+s
27zej9P6wljLhUyQEua3InNgLZYiosT1oR4cEeUQ5tk8umtfxqqQ3sT7anVRaGIK
cNYmd+u4jh/tYt4RcZ+8OHb5HMpEZ/fUqjX/jUx2ui8usPfHpv1i1ptOk0KGhbUg
W7gJN5uSLbWKPaEEl3V8GlK6XTjcenFhsw8fxsU=
-----END CERTIFICATE-----
